target datalayout = "e-m:e-p270:32:32-p271:32:32-p272:64:64-i64:64-i128:128-f80:128-n8:16:32:64-S128"
target triple = "x86_64-pc-linux-gnu"

%"class.icu_77::FieldPositionIterator" = type <{ %"class.icu_77::UObject", ptr, i32, [4 x i8] }>
%"class.icu_77::UObject" = type { ptr }
%"class.icu_77::UVector32" = type { %"class.icu_77::UObject", i32, i32, i32, ptr }
%"class.icu_77::FieldPosition" = type <{ %"class.icu_77::UObject", i32, i32, i32, [4 x i8] }>

; Function Attrs: inlinehint mustprogress nounwind uwtable
define linkonce_odr noundef i32 @_ZNK6icu_779UVector324sizeEv(ptr noundef nonnull align 8 dereferenceable(32) %0) #2 comdat align 2 {
  %2 = alloca ptr, align 8
  store ptr %0, ptr %2, align 8, !tbaa !20
  %3 = load ptr, ptr %2, align 8
  %4 = getelementptr inbounds nuw %"class.icu_77::UVector32", ptr %3, i32 0, i32 1
  %5 = load i32, ptr %4, align 8, !tbaa !25
  ret i32 %5
}

; Function Attrs: mustprogress nounwind uwtable
define linkonce_odr void @_ZN6icu_7713FieldPosition11setEndIndexEi(ptr noundef nonnull align 8 dereferenceable(20) %0, i32 noundef %1) #0 comdat align 2 {
  %3 = alloca ptr, align 8
  %4 = alloca i32, align 4
  store ptr %0, ptr %3, align 8, !tbaa !29
  store i32 %1, ptr %4, align 4, !tbaa !22
  %5 = load ptr, ptr %3, align 8
  %6 = load i32, ptr %4, align 4, !tbaa !22
  %7 = getelementptr inbounds nuw %"class.icu_77::FieldPosition", ptr %5, i32 0, i32 3
  store i32 %6, ptr %7, align 8, !tbaa !34
  ret void
}

; Function Attrs: mustprogress nounwind uwtable
define linkonce_odr void @_ZN6icu_7713FieldPosition13setBeginIndexEi(ptr noundef nonnull align 8 dereferenceable(20) %0, i32 noundef %1) #0 comdat align 2 {
  %3 = alloca ptr, align 8
  %4 = alloca i32, align 4
  store ptr %0, ptr %3, align 8, !tbaa !29
  store i32 %1, ptr %4, align 4, !tbaa !22
  %5 = load ptr, ptr %3, align 8
  %6 = load i32, ptr %4, align 4, !tbaa !22
  %7 = getelementptr inbounds nuw %"class.icu_77::FieldPosition", ptr %5, i32 0, i32 2
  store i32 %6, ptr %7, align 4, !tbaa !33
  ret void
}

; Function Attrs: mustprogress nounwind uwtable
define linkonce_odr void @_ZN6icu_7713FieldPosition8setFieldEi(ptr noundef nonnull align 8 dereferenceable(20) %0, i32 noundef %1) #0 comdat align 2 {
  %3 = alloca ptr, align 8
  %4 = alloca i32, align 4
  store ptr %0, ptr %3, align 8, !tbaa !29
  store i32 %1, ptr %4, align 4, !tbaa !22
  %5 = load ptr, ptr %3, align 8
  %6 = load i32, ptr %4, align 4, !tbaa !22
  %7 = getelementptr inbounds nuw %"class.icu_77::FieldPosition", ptr %5, i32 0, i32 1
  store i32 %6, ptr %7, align 8, !tbaa !31
  ret void
}

; Function Attrs: inlinehint mustprogress nounwind uwtable
define linkonce_odr noundef i32 @_ZNK6icu_779UVector3210elementAtiEi(ptr noundef nonnull align 8 dereferenceable(32) %0, i32 noundef %1) #2 comdat align 2 {
  %3 = alloca ptr, align 8
  %4 = alloca i32, align 4
  store ptr %0, ptr %3, align 8, !tbaa !20
  store i32 %1, ptr %4, align 4, !tbaa !22
  %5 = load ptr, ptr %3, align 8
  %6 = load i32, ptr %4, align 4, !tbaa !22
  %7 = icmp sge i32 %6, 0
  br i1 %7, label %8, label %25

8:                                                ; preds = %2
  %9 = getelementptr inbounds nuw %"class.icu_77::UVector32", ptr %5, i32 0, i32 1
  %10 = load i32, ptr %9, align 8, !tbaa !25
  %11 = icmp sgt i32 %10, 0
  br i1 %11, label %12, label %25

12:                                               ; preds = %8
  %13 = getelementptr inbounds nuw %"class.icu_77::UVector32", ptr %5, i32 0, i32 1
  %14 = load i32, ptr %13, align 8, !tbaa !25
  %15 = load i32, ptr %4, align 4, !tbaa !22
  %16 = sub nsw i32 %14, %15
  %17 = icmp sgt i32 %16, 0
  br i1 %17, label %18, label %25

18:                                               ; preds = %12
  %19 = getelementptr inbounds nuw %"class.icu_77::UVector32", ptr %5, i32 0, i32 4
  %20 = load ptr, ptr %19, align 8, !tbaa !28
  %21 = load i32, ptr %4, align 4, !tbaa !22
  %22 = sext i32 %21 to i64
  %23 = getelementptr inbounds i32, ptr %20, i64 %22
  %24 = load i32, ptr %23, align 4, !tbaa !22
  br label %26

25:                                               ; preds = %12, %8, %2
  br label %26

26:                                               ; preds = %25, %18
  %27 = phi i32 [ %24, %18 ], [ 0, %25 ]
  ret i32 %27
}

; Function Attrs: mustprogress uwtable
define noundef signext i8 @_ZN6icu_7721FieldPositionIterator4nextERNS_13FieldPositionE(ptr noundef nonnull align 8 dereferenceable(20) %0, ptr noundef nonnull align 8 dereferenceable(20) %1) #3 align 2 {
  %3 = alloca i8, align 1
  %4 = alloca ptr, align 8
  %5 = alloca ptr, align 8
  store ptr %0, ptr %4, align 8, !tbaa !3
  store ptr %1, ptr %5, align 8, !tbaa !29
  %6 = load ptr, ptr %4, align 8
  %7 = getelementptr inbounds nuw %"class.icu_77::FieldPositionIterator", ptr %6, i32 0, i32 2
  %8 = load i32, ptr %7, align 8, !tbaa !15
  %9 = icmp eq i32 %8, -1
  br i1 %9, label %10, label %11

10:                                               ; preds = %2
  store i8 0, ptr %3, align 1
  br label %45

11:                                               ; preds = %2
  %12 = getelementptr inbounds nuw %"class.icu_77::FieldPositionIterator", ptr %6, i32 0, i32 2
  %13 = load i32, ptr %12, align 8, !tbaa !15
  %14 = add nsw i32 %13, 1
  store i32 %14, ptr %12, align 8, !tbaa !15
  %15 = load ptr, ptr %5, align 8, !tbaa !29
  %16 = getelementptr inbounds nuw %"class.icu_77::FieldPositionIterator", ptr %6, i32 0, i32 1
  %17 = load ptr, ptr %16, align 8, !tbaa !10
  %18 = getelementptr inbounds nuw %"class.icu_77::FieldPositionIterator", ptr %6, i32 0, i32 2
  %19 = load i32, ptr %18, align 8, !tbaa !15
  %20 = add nsw i32 %19, 1
  store i32 %20, ptr %18, align 8, !tbaa !15
  %21 = call noundef i32 @_ZNK6icu_779UVector3210elementAtiEi(ptr noundef nonnull align 8 dereferenceable(32) %17, i32 noundef %19)
  call void @_ZN6icu_7713FieldPosition8setFieldEi(ptr noundef nonnull align 8 dereferenceable(20) %15, i32 noundef %21)
  %22 = load ptr, ptr %5, align 8, !tbaa !29
  %23 = getelementptr inbounds nuw %"class.icu_77::FieldPositionIterator", ptr %6, i32 0, i32 1
  %24 = load ptr, ptr %23, align 8, !tbaa !10
  %25 = getelementptr inbounds nuw %"class.icu_77::FieldPositionIterator", ptr %6, i32 0, i32 2
  %26 = load i32, ptr %25, align 8, !tbaa !15
  %27 = add nsw i32 %26, 1
  store i32 %27, ptr %25, align 8, !tbaa !15
  %28 = call noundef i32 @_ZNK6icu_779UVector3210elementAtiEi(ptr noundef nonnull align 8 dereferenceable(32) %24, i32 noundef %26)
  call void @_ZN6icu_7713FieldPosition13setBeginIndexEi(ptr noundef nonnull align 8 dereferenceable(20) %22, i32 noundef %28)
  %29 = load ptr, ptr %5, align 8, !tbaa !29
  %30 = getelementptr inbounds nuw %"class.icu_77::FieldPositionIterator", ptr %6, i32 0, i32 1
  %31 = load ptr, ptr %30, align 8, !tbaa !10
  %32 = getelementptr inbounds nuw %"class.icu_77::FieldPositionIterator", ptr %6, i32 0, i32 2
  %33 = load i32, ptr %32, align 8, !tbaa !15
  %34 = add nsw i32 %33, 1
  store i32 %34, ptr %32, align 8, !tbaa !15
  %35 = call noundef i32 @_ZNK6icu_779UVector3210elementAtiEi(ptr noundef nonnull align 8 dereferenceable(32) %31, i32 noundef %33)
  call void @_ZN6icu_7713FieldPosition11setEndIndexEi(ptr noundef nonnull align 8 dereferenceable(20) %29, i32 noundef %35)
  %36 = getelementptr inbounds nuw %"class.icu_77::FieldPositionIterator", ptr %6, i32 0, i32 2
  %37 = load i32, ptr %36, align 8, !tbaa !15
  %38 = getelementptr inbounds nuw %"class.icu_77::FieldPositionIterator", ptr %6, i32 0, i32 1
  %39 = load ptr, ptr %38, align 8, !tbaa !10
  %40 = call noundef i32 @_ZNK6icu_779UVector324sizeEv(ptr noundef nonnull align 8 dereferenceable(32) %39)
  %41 = icmp eq i32 %37, %40
  br i1 %41, label %42, label %44

42:                                               ; preds = %11
  %43 = getelementptr inbounds nuw %"class.icu_77::FieldPositionIterator", ptr %6, i32 0, i32 2
  store i32 -1, ptr %43, align 8, !tbaa !15
  br label %44

44:                                               ; preds = %42, %11
  store i8 1, ptr %3, align 1
  br label %45

45:                                               ; preds = %44, %10
  %46 = load i8, ptr %3, align 1
  ret i8 %46
}