; Function Attrs: mustprogress nofree norecurse nosync nounwind willreturn memory(read, argmem: readwrite, inaccessiblemem: none) uwtable
define noundef signext range(i8 0, 2) i8 @_ZN6icu_7721FieldPositionIterator4nextERNS_13FieldPositionE(ptr noundef nonnull align 8 captures(none) dereferenceable(20) %0, ptr noundef nonnull writeonly align 8 captures(none) dereferenceable(20) %1) local_unnamed_addr #6 align 2 {
  %3 = getelementptr inbounds nuw i8, ptr %0, i64 16
  %4 = load i32, ptr %3, align 8, !tbaa !13
  %5 = icmp eq i32 %4, -1
  br i1 %5, label %49, label %6

6:                                                ; preds = %2
  %7 = add nuw nsw i32 %4, 1
  %8 = getelementptr inbounds nuw i8, ptr %0, i64 8
  %9 = load ptr, ptr %8, align 8, !tbaa !6
  %10 = add nsw i32 %4, 2
  store i32 %10, ptr %3, align 8, !tbaa !13
  %11 = icmp sgt i32 %4, -2
  %12 = getelementptr inbounds nuw i8, ptr %9, i64 8
  %13 = load i32, ptr %12, align 8
  %14 = icmp sgt i32 %13, %7
  %or.cond.i = select i1 %11, i1 %14, i1 false
  br i1 %or.cond.i, label %15, label %_ZNK6icu_779UVector3210elementAtiEi.exit

15:                                               ; preds = %6
  %16 = getelementptr inbounds nuw i8, ptr %9, i64 24
  %17 = load ptr, ptr %16, align 8, !tbaa !19
  %18 = zext nneg i32 %7 to i64
  %19 = getelementptr inbounds nuw i32, ptr %17, i64 %18
  %20 = load i32, ptr %19, align 4, !tbaa !22
  br label %_ZNK6icu_779UVector3210elementAtiEi.exit

_ZNK6icu_779UVector3210elementAtiEi.exit:         ; preds = %6, %15
  %21 = phi i32 [ %20, %15 ], [ 0, %6 ]
  %22 = getelementptr inbounds nuw i8, ptr %1, i64 8
  store i32 %21, ptr %22, align 8, !tbaa !23
  %23 = add nsw i32 %4, 3
  store i32 %23, ptr %3, align 8, !tbaa !13
  %24 = icmp sgt i32 %4, -3
  %25 = load i32, ptr %12, align 8
  %26 = icmp sgt i32 %25, %10
  %or.cond.i5 = select i1 %24, i1 %26, i1 false
  br i1 %or.cond.i5, label %27, label %_ZNK6icu_779UVector3210elementAtiEi.exit6

27:                                               ; preds = %_ZNK6icu_779UVector3210elementAtiEi.exit
  %28 = getelementptr inbounds nuw i8, ptr %9, i64 24
  %29 = load ptr, ptr %28, align 8, !tbaa !19
  %30 = zext nneg i32 %10 to i64
  %31 = getelementptr inbounds nuw i32, ptr %29, i64 %30
  %32 = load i32, ptr %31, align 4, !tbaa !22
  br label %_ZNK6icu_779UVector3210elementAtiEi.exit6

_ZNK6icu_779UVector3210elementAtiEi.exit6:        ; preds = %_ZNK6icu_779UVector3210elementAtiEi.exit, %27
  %33 = phi i32 [ %32, %27 ], [ 0, %_ZNK6icu_779UVector3210elementAtiEi.exit ]
  %34 = getelementptr inbounds nuw i8, ptr %1, i64 12
  store i32 %33, ptr %34, align 4, !tbaa !25
  %35 = add nsw i32 %4, 4
  store i32 %35, ptr %3, align 8, !tbaa !13
  %36 = icmp sgt i32 %4, -4
  %37 = load i32, ptr %12, align 8
  %38 = icmp sgt i32 %37, %23
  %or.cond.i7 = select i1 %36, i1 %38, i1 false
  br i1 %or.cond.i7, label %39, label %_ZNK6icu_779UVector3210elementAtiEi.exit8

39:                                               ; preds = %_ZNK6icu_779UVector3210elementAtiEi.exit6
  %40 = getelementptr inbounds nuw i8, ptr %9, i64 24
  %41 = load ptr, ptr %40, align 8, !tbaa !19
  %42 = zext nneg i32 %23 to i64
  %43 = getelementptr inbounds nuw i32, ptr %41, i64 %42
  %44 = load i32, ptr %43, align 4, !tbaa !22
  br label %_ZNK6icu_779UVector3210elementAtiEi.exit8

_ZNK6icu_779UVector3210elementAtiEi.exit8:        ; preds = %_ZNK6icu_779UVector3210elementAtiEi.exit6, %39
  %45 = phi i32 [ %44, %39 ], [ 0, %_ZNK6icu_779UVector3210elementAtiEi.exit6 ]
  %46 = getelementptr inbounds nuw i8, ptr %1, i64 16
  store i32 %45, ptr %46, align 8, !tbaa !26
  %47 = icmp eq i32 %35, %37
  br i1 %47, label %48, label %49

48:                                               ; preds = %_ZNK6icu_779UVector3210elementAtiEi.exit8
  store i32 -1, ptr %3, align 8, !tbaa !13
  br label %49

49:                                               ; preds = %_ZNK6icu_779UVector3210elementAtiEi.exit8, %48, %2
  %.0 = phi i8 [ 0, %2 ], [ 1, %48 ], [ 1, %_ZNK6icu_779UVector3210elementAtiEi.exit8 ]
  ret i8 %.0
}